target datalayout = "e-m:e-p270:32:32-p271:32:32-p272:64:64-i64:64-i128:128-f80:128-n8:16:32:64-S128"
target triple = "x86_64-pc-linux-gnu"

%struct.z_stream_s = type { ptr, i32, i64, ptr, i32, i64, ptr, ptr, ptr, ptr, ptr, i32, i64, i64 }
%struct.wtap_writer = type { i32, i64, i32, i32, ptr, ptr, ptr, i32, i32, i32, ptr, %struct.z_stream_s }

; Function Attrs: alwaysinline nounwind
define internal ptr @memcpy.inline(ptr noalias %0, ptr noalias %1, i64 %2) #10 {
  %4 = alloca ptr, align 8
  %5 = alloca ptr, align 8
  %6 = alloca i64, align 8
  store ptr %0, ptr %4, align 8
  store ptr %1, ptr %5, align 8
  store i64 %2, ptr %6, align 8
  %7 = load ptr, ptr %4, align 8
  %8 = load ptr, ptr %5, align 8
  %9 = load i64, ptr %6, align 8
  %10 = load ptr, ptr %4, align 8
  %11 = call i64 @llvm.objectsize.i64.p0(ptr %10, i1 false, i1 true, i1 true)
  %12 = call ptr @__memcpy_chk(ptr noundef %7, ptr noundef %8, i64 noundef %9, i64 noundef %11) #14
  ret ptr %12
}

; Function Attrs: null_pointer_is_valid sspstrong uwtable
define hidden i32 @gzwfile_write(ptr noundef %0, ptr noundef %1, i32 noundef %2) #0 {
  %4 = alloca i32, align 4
  %5 = alloca ptr, align 8
  %6 = alloca ptr, align 8
  %7 = alloca i32, align 4
  %8 = alloca i32, align 4
  %9 = alloca i32, align 4
  %10 = alloca ptr, align 8
  %11 = alloca i32, align 4
  store ptr %0, ptr %5, align 8
  store ptr %1, ptr %6, align 8
  store i32 %2, ptr %7, align 4
  call void @llvm.lifetime.start.p0(i64 4, ptr %8) #14
  %12 = load i32, ptr %7, align 4
  store i32 %12, ptr %8, align 4
  call void @llvm.lifetime.start.p0(i64 4, ptr %9) #14
  call void @llvm.lifetime.start.p0(i64 8, ptr %10) #14
  %13 = load ptr, ptr %5, align 8
  %14 = getelementptr inbounds nuw %struct.wtap_writer, ptr %13, i32 0, i32 11
  store ptr %14, ptr %10, align 8
  %15 = load ptr, ptr %5, align 8
  %16 = getelementptr inbounds nuw %struct.wtap_writer, ptr %15, i32 0, i32 9
  %17 = load i32, ptr %16, align 8
  %18 = icmp ne i32 %17, 0
  br i1 %18, label %19, label %20

19:                                               ; preds = %3
  store i32 0, ptr %4, align 4
  store i32 1, ptr %11, align 4
  br label %138

20:                                               ; preds = %3
  %21 = load i32, ptr %7, align 4
  %22 = icmp eq i32 %21, 0
  br i1 %22, label %23, label %24

23:                                               ; preds = %20
  store i32 0, ptr %4, align 4
  store i32 1, ptr %11, align 4
  br label %138

24:                                               ; preds = %20
  %25 = load ptr, ptr %5, align 8
  %26 = getelementptr inbounds nuw %struct.wtap_writer, ptr %25, i32 0, i32 2
  %27 = load i32, ptr %26, align 8
  %28 = icmp eq i32 %27, 0
  br i1 %28, label %29, label %34

29:                                               ; preds = %24
  %30 = load ptr, ptr %5, align 8
  %31 = call i32 @gz_init(ptr noundef %30)
  %32 = icmp eq i32 %31, -1
  br i1 %32, label %33, label %34

33:                                               ; preds = %29
  store i32 0, ptr %4, align 4
  store i32 1, ptr %11, align 4
  br label %138

34:                                               ; preds = %29, %24
  %35 = load i32, ptr %7, align 4
  %36 = load ptr, ptr %5, align 8
  %37 = getelementptr inbounds nuw %struct.wtap_writer, ptr %36, i32 0, i32 2
  %38 = load i32, ptr %37, align 8
  %39 = icmp ult i32 %35, %38
  br i1 %39, label %40, label %108

40:                                               ; preds = %34
  br label %41

41:                                               ; preds = %104, %40
  %42 = load ptr, ptr %10, align 8
  %43 = getelementptr inbounds nuw %struct.z_stream_s, ptr %42, i32 0, i32 1
  %44 = load i32, ptr %43, align 8
  %45 = icmp eq i32 %44, 0
  br i1 %45, label %46, label %52

46:                                               ; preds = %41
  %47 = load ptr, ptr %5, align 8
  %48 = getelementptr inbounds nuw %struct.wtap_writer, ptr %47, i32 0, i32 4
  %49 = load ptr, ptr %48, align 8
  %50 = load ptr, ptr %10, align 8
  %51 = getelementptr inbounds nuw %struct.z_stream_s, ptr %50, i32 0, i32 0
  store ptr %49, ptr %51, align 8
  br label %52

52:                                               ; preds = %46, %41
  %53 = load ptr, ptr %5, align 8
  %54 = getelementptr inbounds nuw %struct.wtap_writer, ptr %53, i32 0, i32 2
  %55 = load i32, ptr %54, align 8
  %56 = load ptr, ptr %10, align 8
  %57 = getelementptr inbounds nuw %struct.z_stream_s, ptr %56, i32 0, i32 1
  %58 = load i32, ptr %57, align 8
  %59 = sub i32 %55, %58
  store i32 %59, ptr %9, align 4
  %60 = load i32, ptr %9, align 4
  %61 = load i32, ptr %7, align 4
  %62 = icmp ugt i32 %60, %61
  br i1 %62, label %63, label %65

63:                                               ; preds = %52
  %64 = load i32, ptr %7, align 4
  store i32 %64, ptr %9, align 4
  br label %65

65:                                               ; preds = %63, %52
  %66 = load ptr, ptr %10, align 8
  %67 = getelementptr inbounds nuw %struct.z_stream_s, ptr %66, i32 0, i32 0
  %68 = load ptr, ptr %67, align 8
  %69 = load ptr, ptr %10, align 8
  %70 = getelementptr inbounds nuw %struct.z_stream_s, ptr %69, i32 0, i32 1
  %71 = load i32, ptr %70, align 8
  %72 = zext i32 %71 to i64
  %73 = getelementptr i8, ptr %68, i64 %72
  %74 = load ptr, ptr %6, align 8
  %75 = load i32, ptr %9, align 4
  %76 = zext i32 %75 to i64
  %77 = call ptr @memcpy.inline(ptr noundef %73, ptr noundef %74, i64 noundef %76) #14
  %78 = load i32, ptr %9, align 4
  %79 = load ptr, ptr %10, align 8
  %80 = getelementptr inbounds nuw %struct.z_stream_s, ptr %79, i32 0, i32 1
  %81 = load i32, ptr %80, align 8
  %82 = add i32 %81, %78
  store i32 %82, ptr %80, align 8
  %83 = load i32, ptr %9, align 4
  %84 = zext i32 %83 to i64
  %85 = load ptr, ptr %5, align 8
  %86 = getelementptr inbounds nuw %struct.wtap_writer, ptr %85, i32 0, i32 1
  %87 = load i64, ptr %86, align 8
  %88 = add i64 %87, %84
  store i64 %88, ptr %86, align 8
  %89 = load ptr, ptr %6, align 8
  %90 = load i32, ptr %9, align 4
  %91 = zext i32 %90 to i64
  %92 = getelementptr i8, ptr %89, i64 %91
  store ptr %92, ptr %6, align 8
  %93 = load i32, ptr %9, align 4
  %94 = load i32, ptr %7, align 4
  %95 = sub i32 %94, %93
  store i32 %95, ptr %7, align 4
  %96 = load i32, ptr %7, align 4
  %97 = icmp ne i32 %96, 0
  br i1 %97, label %98, label %103

98:                                               ; preds = %65
  %99 = load ptr, ptr %5, align 8
  %100 = call i32 @gz_comp(ptr noundef %99, i32 noundef 0)
  %101 = icmp eq i32 %100, -1
  br i1 %101, label %102, label %103

102:                                              ; preds = %98
  store i32 0, ptr %4, align 4
  store i32 1, ptr %11, align 4
  br label %138

103:                                              ; preds = %98, %65
  br label %104

104:                                              ; preds = %103
  %105 = load i32, ptr %7, align 4
  %106 = icmp ne i32 %105, 0
  br i1 %106, label %41, label %107, !llvm.loop !21

107:                                              ; preds = %104
  br label %136

108:                                              ; preds = %34
  %109 = load ptr, ptr %10, align 8
  %110 = getelementptr inbounds nuw %struct.z_stream_s, ptr %109, i32 0, i32 1
  %111 = load i32, ptr %110, align 8
  %112 = icmp ne i32 %111, 0
  br i1 %112, label %113, label %118

113:                                              ; preds = %108
  %114 = load ptr, ptr %5, align 8
  %115 = call i32 @gz_comp(ptr noundef %114, i32 noundef 0)
  %116 = icmp eq i32 %115, -1
  br i1 %116, label %117, label %118

117:                                              ; preds = %113
  store i32 0, ptr %4, align 4
  store i32 1, ptr %11, align 4
  br label %138

118:                                              ; preds = %113, %108
  %119 = load i32, ptr %7, align 4
  %120 = load ptr, ptr %10, align 8
  %121 = getelementptr inbounds nuw %struct.z_stream_s, ptr %120, i32 0, i32 1
  store i32 %119, ptr %121, align 8
  %122 = load ptr, ptr %6, align 8
  %123 = load ptr, ptr %10, align 8
  %124 = getelementptr inbounds nuw %struct.z_stream_s, ptr %123, i32 0, i32 0
  store ptr %122, ptr %124, align 8
  %125 = load i32, ptr %7, align 4
  %126 = zext i32 %125 to i64
  %127 = load ptr, ptr %5, align 8
  %128 = getelementptr inbounds nuw %struct.wtap_writer, ptr %127, i32 0, i32 1
  %129 = load i64, ptr %128, align 8
  %130 = add i64 %129, %126
  store i64 %130, ptr %128, align 8
  %131 = load ptr, ptr %5, align 8
  %132 = call i32 @gz_comp(ptr noundef %131, i32 noundef 0)
  %133 = icmp eq i32 %132, -1
  br i1 %133, label %134, label %135

134:                                              ; preds = %118
  store i32 0, ptr %4, align 4
  store i32 1, ptr %11, align 4
  br label %138

135:                                              ; preds = %118
  br label %136

136:                                              ; preds = %135, %107
  %137 = load i32, ptr %8, align 4
  store i32 %137, ptr %4, align 4
  store i32 1, ptr %11, align 4
  br label %138

138:                                              ; preds = %136, %134, %117, %102, %33, %23, %19
  call void @llvm.lifetime.end.p0(i64 8, ptr %10) #14
  call void @llvm.lifetime.end.p0(i64 4, ptr %9) #14
  call void @llvm.lifetime.end.p0(i64 4, ptr %8) #14
  %139 = load i32, ptr %4, align 4
  ret i32 %139
}