; Function Attrs: null_pointer_is_valid sspstrong uwtable
define hidden noundef i32 @gzwfile_write(ptr noundef %0, ptr noundef %1, i32 noundef %2) local_unnamed_addr #0 {
  %4 = getelementptr inbounds nuw i8, ptr %0, i64 72
  %5 = getelementptr inbounds nuw i8, ptr %0, i64 56
  %6 = load i32, ptr %5, align 8
  %.not = icmp ne i32 %6, 0
  %7 = icmp eq i32 %2, 0
  %or.cond = or i1 %7, %.not
  br i1 %or.cond, label %.loopexit, label %8

8:                                                ; preds = %3
  %9 = getelementptr inbounds nuw i8, ptr %0, i64 16
  %10 = load i32, ptr %9, align 8
  %11 = icmp eq i32 %10, 0
  br i1 %11, label %12, label %15

12:                                               ; preds = %8
  %13 = tail call fastcc i32 @gz_init(ptr noundef %0)
  %14 = icmp eq i32 %13, -1
  br i1 %14, label %.loopexit, label %._crit_edge

._crit_edge:                                      ; preds = %12
  %.pre = load i32, ptr %9, align 8
  br label %15

15:                                               ; preds = %._crit_edge, %8
  %16 = phi i32 [ %.pre, %._crit_edge ], [ %10, %8 ]
  %17 = icmp ult i32 %2, %16
  %18 = getelementptr inbounds nuw i8, ptr %0, i64 80
  br i1 %17, label %.preheader, label %42

.preheader:                                       ; preds = %15
  %19 = getelementptr inbounds nuw i8, ptr %0, i64 24
  %20 = getelementptr inbounds nuw i8, ptr %0, i64 8
  br label %21

21:                                               ; preds = %.preheader, %38
  %.043 = phi i32 [ %37, %38 ], [ %2, %.preheader ]
  %.042 = phi ptr [ %39, %38 ], [ %1, %.preheader ]
  %22 = load i32, ptr %18, align 8
  %23 = icmp eq i32 %22, 0
  br i1 %23, label %24, label %._crit_edge49

._crit_edge49:                                    ; preds = %21
  %.pre50 = load ptr, ptr %4, align 8
  br label %26

24:                                               ; preds = %21
  %25 = load ptr, ptr %19, align 8
  store ptr %25, ptr %4, align 8
  br label %26

26:                                               ; preds = %._crit_edge49, %24
  %27 = phi ptr [ %.pre50, %._crit_edge49 ], [ %25, %24 ]
  %28 = load i32, ptr %9, align 8
  %29 = sub i32 %28, %22
  %spec.select = tail call i32 @llvm.umin.i32(i32 %29, i32 %.043)
  %30 = zext i32 %22 to i64
  %31 = getelementptr i8, ptr %27, i64 %30
  %32 = zext i32 %spec.select to i64
  tail call void @llvm.memcpy.p0.p0.i64(ptr noundef align 1 %31, ptr noundef align 1 %.042, i64 noundef range(i64 0, 4294967296) %32, i1 noundef false) #21
  %33 = load i32, ptr %18, align 8
  %34 = add i32 %33, %spec.select
  store i32 %34, ptr %18, align 8
  %35 = load i64, ptr %20, align 8
  %36 = add i64 %35, %32
  store i64 %36, ptr %20, align 8
  %37 = sub i32 %.043, %spec.select
  %.not48 = icmp eq i32 %37, 0
  br i1 %.not48, label %.critedge, label %38

38:                                               ; preds = %26
  %39 = getelementptr i8, ptr %.042, i64 %32
  %40 = tail call fastcc i32 @gz_comp(ptr noundef %0, i32 noundef 0)
  %41 = icmp eq i32 %40, -1
  br i1 %41, label %.loopexit, label %21, !llvm.loop !40

42:                                               ; preds = %15
  %43 = load i32, ptr %18, align 8
  %.not47 = icmp eq i32 %43, 0
  br i1 %.not47, label %47, label %44

44:                                               ; preds = %42
  %45 = tail call fastcc i32 @gz_comp(ptr noundef %0, i32 noundef 0)
  %46 = icmp eq i32 %45, -1
  br i1 %46, label %.loopexit, label %47

47:                                               ; preds = %44, %42
  store i32 %2, ptr %18, align 8
  store ptr %1, ptr %4, align 8
  %48 = zext i32 %2 to i64
  %49 = getelementptr inbounds nuw i8, ptr %0, i64 8
  %50 = load i64, ptr %49, align 8
  %51 = add i64 %50, %48
  store i64 %51, ptr %49, align 8
  %52 = tail call fastcc i32 @gz_comp(ptr noundef %0, i32 noundef 0)
  %53 = icmp eq i32 %52, -1
  br i1 %53, label %.loopexit, label %.critedge

.critedge:                                        ; preds = %26, %47
  br label %.loopexit

.loopexit:                                        ; preds = %38, %47, %44, %12, %3, %.critedge
  %.0 = phi i32 [ %2, %.critedge ], [ 0, %3 ], [ 0, %12 ], [ 0, %44 ], [ 0, %47 ], [ 0, %38 ]
  ret i32 %.0
}